; Function Attrs: mustprogress uwtable
define hidden void @_ZN3ue214buildMcClellanERKNS_8NGHolderEPKNS_13ReportManagerERKNS_4GreyE(ptr dead_on_unwind noalias writable writeonly sret(%"class.std::unique_ptr") align 8 captures(none) %0, ptr noundef nonnull align 8 dereferenceable(136) %1, ptr noundef %2, ptr noundef nonnull align 8 dereferenceable(292) %3) local_unnamed_addr #2 personality ptr @__gxx_personality_v0 {
  %5 = alloca %"class.std::vector.33", align 8
  call void @llvm.lifetime.start.p0(i64 24, ptr nonnull %5) #25
  call void @llvm.memset.p0.i64(ptr noundef nonnull align 8 dereferenceable(24) %5, i8 0, i64 24, i1 false)
  invoke void @_ZN3ue214buildMcClellanERKNS_8NGHolderEPKNS_13ReportManagerEbRKSt6vectorIS6_INS_9CharReachESaIS7_EESaIS9_EERKNS_4GreyEb(ptr dead_on_unwind writable sret(%"class.std::unique_ptr") align 8 %0, ptr noundef nonnull align 8 dereferenceable(136) %1, ptr noundef %2, i1 noundef zeroext false, ptr noundef nonnull align 8 dereferenceable(24) %5, ptr noundef nonnull align 8 dereferenceable(292) %3, i1 noundef zeroext false)
          to label %_ZNSt6vectorIS_IN3ue29CharReachESaIS1_EESaIS3_EED2Ev.exit unwind label %6

_ZNSt6vectorIS_IN3ue29CharReachESaIS1_EESaIS3_EED2Ev.exit: ; preds = %4
  call void @llvm.lifetime.end.p0(i64 24, ptr nonnull %5) #25
  ret void

6:                                                ; preds = %4
  %7 = landingpad { ptr, i32 }
          cleanup
  call void @_ZNSt6vectorIS_IN3ue29CharReachESaIS1_EESaIS3_EED2Ev(ptr noundef nonnull align 8 dereferenceable(24) %5) #25
  call void @llvm.lifetime.end.p0(i64 24, ptr nonnull %5) #25
  resume { ptr, i32 } %7
}